target datalayout = "e-m:e-p270:32:32-p271:32:32-p272:64:64-i64:64-i128:128-f80:128-n8:16:32:64-S128"
target triple = "x86_64-pc-linux-gnu"

%struct.slurm_cred_arg_t = type { %struct.slurm_step_id_msg, i32, i32, ptr, i16, ptr, ptr, ptr, i32, ptr, ptr, ptr, ptr, ptr, ptr, ptr, i16, i64, ptr, ptr, ptr, ptr, ptr, i32, i32, ptr, i32, i16, ptr, ptr, ptr, i16, ptr, i64, ptr, ptr, ptr, i16, ptr, ptr, ptr, ptr, i32, ptr, ptr }
%struct.slurm_step_id_msg = type { i64, i32, i32, i32 }
%struct.slurm_cred_t = type { i32, %union.pthread_rwlock_t, ptr, i32, i16, ptr, i64, ptr, i8 }
%union.pthread_rwlock_t = type { %struct.__pthread_rwlock_arch_t }
%struct.__pthread_rwlock_arch_t = type { i32, i32, i32, i32, i32, i32, i32, i32, i8, [7 x i8], i64, i32 }

@.str.34 = private unnamed_addr constant [7 x i8] c"cred.c\00", align 1
@__func__.slurm_cred_alloc = private unnamed_addr constant [17 x i8] c"slurm_cred_alloc\00", align 1
@.str.35 = private unnamed_addr constant [30 x i8] c"%s: pthread_rwlock_init(): %m\00", align 1

; Function Attrs: nounwind uwtable
define dso_local ptr @slurm_cred_alloc(i1 noundef zeroext %0) #0 {
  %2 = alloca i8, align 1
  %3 = alloca ptr, align 8
  %4 = alloca i32, align 4
  %5 = zext i1 %0 to i8
  store i8 %5, ptr %2, align 1
  call void @llvm.lifetime.start.p0(i64 8, ptr %3) #9
  %6 = call ptr @slurm_xcalloc(i64 noundef 1, i64 noundef 112, i1 noundef zeroext true, i1 noundef zeroext false, ptr noundef @.str.34, i32 noundef 654, ptr noundef @__func__.slurm_cred_alloc)
  store ptr %6, ptr %3, align 8
  br label %7

7:                                                ; preds = %1
  call void @llvm.lifetime.start.p0(i64 4, ptr %4) #9
  %8 = load ptr, ptr %3, align 8
  %9 = getelementptr inbounds nuw %struct.slurm_cred_t, ptr %8, i32 0, i32 1
  %10 = call i32 @pthread_rwlock_init(ptr noundef %9, ptr noundef null) #9
  store i32 %10, ptr %4, align 4
  %11 = load i32, ptr %4, align 4
  %12 = icmp ne i32 %11, 0
  br i1 %12, label %13, label %16

13:                                               ; preds = %7
  %14 = load i32, ptr %4, align 4
  %15 = call ptr @__errno_location() #11
  store i32 %14, ptr %15, align 4
  call void (ptr, ...) @fatal_abort(ptr noundef @.str.35, ptr noundef @__func__.slurm_cred_alloc) #12
  unreachable

16:                                               ; preds = %7
  call void @llvm.lifetime.end.p0(i64 4, ptr %4) #9
  br label %17

17:                                               ; preds = %16
  br label %18

18:                                               ; preds = %17
  %19 = load i8, ptr %2, align 1, !range !11, !noundef !12
  %20 = trunc i8 %19 to i1
  br i1 %20, label %21, label %33

21:                                               ; preds = %18
  %22 = call ptr @slurm_xcalloc(i64 noundef 1, i64 noundef 352, i1 noundef zeroext true, i1 noundef zeroext false, ptr noundef @.str.34, i32 noundef 660, ptr noundef @__func__.slurm_cred_alloc)
  %23 = load ptr, ptr %3, align 8
  %24 = getelementptr inbounds nuw %struct.slurm_cred_t, ptr %23, i32 0, i32 5
  store ptr %22, ptr %24, align 8
  %25 = load ptr, ptr %3, align 8
  %26 = getelementptr inbounds nuw %struct.slurm_cred_t, ptr %25, i32 0, i32 5
  %27 = load ptr, ptr %26, align 8
  %28 = getelementptr inbounds nuw %struct.slurm_cred_arg_t, ptr %27, i32 0, i32 1
  store i32 99, ptr %28, align 8
  %29 = load ptr, ptr %3, align 8
  %30 = getelementptr inbounds nuw %struct.slurm_cred_t, ptr %29, i32 0, i32 5
  %31 = load ptr, ptr %30, align 8
  %32 = getelementptr inbounds nuw %struct.slurm_cred_arg_t, ptr %31, i32 0, i32 2
  store i32 99, ptr %32, align 4
  br label %33

33:                                               ; preds = %21, %18
  %34 = load ptr, ptr %3, align 8
  %35 = getelementptr inbounds nuw %struct.slurm_cred_t, ptr %34, i32 0, i32 8
  store i8 0, ptr %35, align 8
  %36 = load ptr, ptr %3, align 8
  %37 = getelementptr inbounds nuw %struct.slurm_cred_t, ptr %36, i32 0, i32 0
  store i32 723723, ptr %37, align 8
  %38 = load ptr, ptr %3, align 8
  call void @llvm.lifetime.end.p0(i64 8, ptr %3) #9
  ret ptr %38
}