; Function Attrs: nounwind uwtable
define dso_local ptr @slurm_cred_alloc(i1 noundef zeroext %0) local_unnamed_addr #0 {
  %2 = tail call ptr @slurm_xcalloc(i64 noundef 1, i64 noundef 112, i1 noundef zeroext true, i1 noundef zeroext false, ptr noundef nonnull @.str.34, i32 noundef 654, ptr noundef nonnull @__func__.slurm_cred_alloc) #11
  %3 = getelementptr inbounds nuw i8, ptr %2, i64 8
  %4 = tail call i32 @pthread_rwlock_init(ptr noundef nonnull %3, ptr noundef null) #11
  %.not = icmp eq i32 %4, 0
  br i1 %.not, label %7, label %5

5:                                                ; preds = %1
  %6 = tail call ptr @__errno_location() #12
  store i32 %4, ptr %6, align 4
  tail call void (ptr, ...) @fatal_abort(ptr noundef nonnull @.str.35, ptr noundef nonnull @__func__.slurm_cred_alloc) #13
  unreachable

7:                                                ; preds = %1
  br i1 %0, label %8, label %14

8:                                                ; preds = %7
  %9 = tail call ptr @slurm_xcalloc(i64 noundef 1, i64 noundef 352, i1 noundef zeroext true, i1 noundef zeroext false, ptr noundef nonnull @.str.34, i32 noundef 660, ptr noundef nonnull @__func__.slurm_cred_alloc) #11
  %10 = getelementptr inbounds nuw i8, ptr %2, i64 80
  store ptr %9, ptr %10, align 8
  %11 = getelementptr inbounds nuw i8, ptr %9, i64 24
  store i32 99, ptr %11, align 8
  %12 = load ptr, ptr %10, align 8
  %13 = getelementptr inbounds nuw i8, ptr %12, i64 28
  store i32 99, ptr %13, align 4
  br label %14

14:                                               ; preds = %8, %7
  %15 = getelementptr inbounds nuw i8, ptr %2, i64 104
  store i8 0, ptr %15, align 8
  store i32 723723, ptr %2, align 8
  ret ptr %2
}